target datalayout = "e-m:e-p270:32:32-p271:32:32-p272:64:64-i64:64-i128:128-f80:128-n8:16:32:64-S128"
target triple = "x86_64-pc-linux-gnu"

%"class.std::__cxx11::basic_string" = type { %"struct.std::__cxx11::basic_string<char>::_Alloc_hider", i64, %union.anon }
%"struct.std::__cxx11::basic_string<char>::_Alloc_hider" = type { ptr }
%union.anon = type { i64, [8 x i8] }
%"struct.igl::tinyply::PlyProperty" = type { %"class.std::__cxx11::basic_string", i8, i8, i8, i64 }
%"struct.igl::tinyply::PlyFile::PlyFileImpl::PropertyLookup" = type { ptr, i8, i64, i64 }
%class.anon.92 = type { ptr, ptr, ptr }

; Function Attrs: inlinehint mustprogress nounwind uwtable
define internal void @"_ZZN3igl7tinyply7PlyFile11PlyFileImpl10parse_dataERSibENK3$_2clERNS2_14PropertyLookupERKNS0_11PlyPropertyEPhRmS3_"(ptr noundef nonnull align 8 dereferenceable(24) %0, ptr noundef nonnull align 8 dereferenceable(32) %1, ptr noundef nonnull align 8 dereferenceable(48) %2, ptr noundef %3, ptr noundef nonnull align 8 dereferenceable(8) %4, ptr noundef nonnull align 8 dereferenceable(16) %5) #5 align 2 personality ptr @__gxx_personality_v0 {
  %7 = alloca ptr, align 8
  %8 = alloca ptr, align 8
  %9 = alloca ptr, align 8
  %10 = alloca ptr, align 8
  %11 = alloca ptr, align 8
  %12 = alloca ptr, align 8
  %13 = alloca i64, align 8
  store ptr %0, ptr %7, align 8, !tbaa !29
  store ptr %1, ptr %8, align 8, !tbaa !108
  store ptr %2, ptr %9, align 8, !tbaa !56
  store ptr %3, ptr %10, align 8, !tbaa !18
  store ptr %4, ptr %11, align 8, !tbaa !48
  store ptr %5, ptr %12, align 8, !tbaa !58
  %14 = load ptr, ptr %7, align 8
  %15 = getelementptr inbounds nuw %class.anon.92, ptr %14, i32 0, i32 0
  %16 = load ptr, ptr %15, align 8, !tbaa !213
  %17 = load ptr, ptr %9, align 8, !tbaa !56
  %18 = getelementptr inbounds nuw %"struct.igl::tinyply::PlyProperty", ptr %17, i32 0, i32 2
  %19 = load i8, ptr %18, align 1, !tbaa !63, !range !93, !noundef !94
  %20 = trunc i8 %19 to i1
  br i1 %20, label %34, label %21

21:                                               ; preds = %6
  %22 = load ptr, ptr %9, align 8, !tbaa !56
  %23 = getelementptr inbounds nuw %"struct.igl::tinyply::PlyProperty", ptr %22, i32 0, i32 1
  %24 = load ptr, ptr %8, align 8, !tbaa !108
  %25 = getelementptr inbounds nuw %"struct.igl::tinyply::PlyFile::PlyFileImpl::PropertyLookup", ptr %24, i32 0, i32 2
  %26 = load ptr, ptr %10, align 8, !tbaa !18
  %27 = load ptr, ptr %11, align 8, !tbaa !48
  %28 = load i64, ptr %27, align 8, !tbaa !50
  %29 = getelementptr inbounds nuw i8, ptr %26, i64 %28
  %30 = load ptr, ptr %11, align 8, !tbaa !48
  %31 = load ptr, ptr %12, align 8, !tbaa !58
  %32 = invoke noundef i64 @_ZN3igl7tinyply7PlyFile11PlyFileImpl19read_property_asciiERKNS0_4TypeERKmPvRmRSi(ptr noundef nonnull align 8 dereferenceable(200) %16, ptr noundef nonnull align 1 dereferenceable(1) %23, ptr noundef nonnull align 8 dereferenceable(8) %25, ptr noundef %29, ptr noundef nonnull align 8 dereferenceable(8) %30, ptr noundef nonnull align 8 dereferenceable(16) %31)
          to label %33 unwind label %72

33:                                               ; preds = %21
  br label %71

34:                                               ; preds = %6
  %35 = load ptr, ptr %9, align 8, !tbaa !56
  %36 = getelementptr inbounds nuw %"struct.igl::tinyply::PlyProperty", ptr %35, i32 0, i32 3
  %37 = load ptr, ptr %8, align 8, !tbaa !108
  %38 = getelementptr inbounds nuw %"struct.igl::tinyply::PlyFile::PlyFileImpl::PropertyLookup", ptr %37, i32 0, i32 3
  %39 = getelementptr inbounds nuw %class.anon.92, ptr %14, i32 0, i32 1
  %40 = load ptr, ptr %39, align 8, !tbaa !845
  %41 = getelementptr inbounds nuw %class.anon.92, ptr %14, i32 0, i32 2
  %42 = load ptr, ptr %41, align 8, !tbaa !846
  %43 = load ptr, ptr %12, align 8, !tbaa !58
  %44 = invoke noundef i64 @_ZN3igl7tinyply7PlyFile11PlyFileImpl19read_property_asciiERKNS0_4TypeERKmPvRmRSi(ptr noundef nonnull align 8 dereferenceable(200) %16, ptr noundef nonnull align 1 dereferenceable(1) %36, ptr noundef nonnull align 8 dereferenceable(8) %38, ptr noundef %40, ptr noundef nonnull align 8 dereferenceable(8) %42, ptr noundef nonnull align 8 dereferenceable(16) %43)
          to label %45 unwind label %72

45:                                               ; preds = %34
  call void @llvm.lifetime.start.p0(i64 8, ptr %13) #6
  store i64 0, ptr %13, align 8, !tbaa !50
  br label %46

46:                                               ; preds = %67, %45
  %47 = load i64, ptr %13, align 8, !tbaa !50
  %48 = getelementptr inbounds nuw %class.anon.92, ptr %14, i32 0, i32 1
  %49 = load ptr, ptr %48, align 8, !tbaa !845
  %50 = load i32, ptr %49, align 4, !tbaa !22
  %51 = zext i32 %50 to i64
  %52 = icmp ult i64 %47, %51
  br i1 %52, label %54, label %53

53:                                               ; preds = %46
  call void @llvm.lifetime.end.p0(i64 8, ptr %13) #6
  br label %70

54:                                               ; preds = %46
  %55 = load ptr, ptr %9, align 8, !tbaa !56
  %56 = getelementptr inbounds nuw %"struct.igl::tinyply::PlyProperty", ptr %55, i32 0, i32 1
  %57 = load ptr, ptr %8, align 8, !tbaa !108
  %58 = getelementptr inbounds nuw %"struct.igl::tinyply::PlyFile::PlyFileImpl::PropertyLookup", ptr %57, i32 0, i32 2
  %59 = load ptr, ptr %10, align 8, !tbaa !18
  %60 = load ptr, ptr %11, align 8, !tbaa !48
  %61 = load i64, ptr %60, align 8, !tbaa !50
  %62 = getelementptr inbounds nuw i8, ptr %59, i64 %61
  %63 = load ptr, ptr %11, align 8, !tbaa !48
  %64 = load ptr, ptr %12, align 8, !tbaa !58
  %65 = invoke noundef i64 @_ZN3igl7tinyply7PlyFile11PlyFileImpl19read_property_asciiERKNS0_4TypeERKmPvRmRSi(ptr noundef nonnull align 8 dereferenceable(200) %16, ptr noundef nonnull align 1 dereferenceable(1) %56, ptr noundef nonnull align 8 dereferenceable(8) %58, ptr noundef %62, ptr noundef nonnull align 8 dereferenceable(8) %63, ptr noundef nonnull align 8 dereferenceable(16) %64)
          to label %66 unwind label %72

66:                                               ; preds = %54
  br label %67

67:                                               ; preds = %66
  %68 = load i64, ptr %13, align 8, !tbaa !50
  %69 = add i64 %68, 1
  store i64 %69, ptr %13, align 8, !tbaa !50
  br label %46, !llvm.loop !847

70:                                               ; preds = %53
  br label %71

71:                                               ; preds = %70, %33
  ret void

72:                                               ; preds = %54, %34, %21
  %73 = landingpad { ptr, i32 }
          catch ptr null
  %74 = extractvalue { ptr, i32 } %73, 0
  call void @__clang_call_terminate(ptr %74) #23
  unreachable
}

; Function Attrs: mustprogress nounwind uwtable
define linkonce_odr dso_local noundef ptr @_ZNKSt9_Any_data9_M_accessEv(ptr noundef nonnull align 8 dereferenceable(16) %0) #4 comdat align 2 {
  %2 = alloca ptr, align 8
  store ptr %0, ptr %2, align 8, !tbaa !832
  %3 = load ptr, ptr %2, align 8
  %4 = getelementptr inbounds [16 x i8], ptr %3, i64 0, i64 0
  ret ptr %4
}

; Function Attrs: mustprogress nounwind uwtable
define internal void @"_ZSt13__invoke_implIvRZN3igl7tinyply7PlyFile11PlyFileImpl10parse_dataERSibE3$_2JRNS3_14PropertyLookupERKNS1_11PlyPropertyEPhRmS4_EET_St14__invoke_otherOT0_DpOT1_"(ptr noundef nonnull align 8 dereferenceable(24) %0, ptr noundef nonnull align 8 dereferenceable(32) %1, ptr noundef nonnull align 8 dereferenceable(48) %2, ptr noundef nonnull align 8 dereferenceable(8) %3, ptr noundef nonnull align 8 dereferenceable(8) %4, ptr noundef nonnull align 8 dereferenceable(16) %5) #4 {
  %7 = alloca ptr, align 8
  %8 = alloca ptr, align 8
  %9 = alloca ptr, align 8
  %10 = alloca ptr, align 8
  %11 = alloca ptr, align 8
  %12 = alloca ptr, align 8
  store ptr %0, ptr %7, align 8, !tbaa !29
  store ptr %1, ptr %8, align 8, !tbaa !108
  store ptr %2, ptr %9, align 8, !tbaa !56
  store ptr %3, ptr %10, align 8, !tbaa !416
  store ptr %4, ptr %11, align 8, !tbaa !48
  store ptr %5, ptr %12, align 8, !tbaa !58
  %13 = load ptr, ptr %7, align 8, !tbaa !29
  %14 = load ptr, ptr %8, align 8, !tbaa !108
  %15 = load ptr, ptr %9, align 8, !tbaa !56
  %16 = load ptr, ptr %10, align 8, !tbaa !416
  %17 = load ptr, ptr %16, align 8, !tbaa !18
  %18 = load ptr, ptr %11, align 8, !tbaa !48
  %19 = load ptr, ptr %12, align 8, !tbaa !58
  call void @"_ZZN3igl7tinyply7PlyFile11PlyFileImpl10parse_dataERSibENK3$_2clERNS2_14PropertyLookupERKNS0_11PlyPropertyEPhRmS3_"(ptr noundef nonnull align 8 dereferenceable(24) %13, ptr noundef nonnull align 8 dereferenceable(32) %14, ptr noundef nonnull align 8 dereferenceable(48) %15, ptr noundef %17, ptr noundef nonnull align 8 dereferenceable(8) %18, ptr noundef nonnull align 8 dereferenceable(16) %19) #6
  ret void
}

; Function Attrs: mustprogress nounwind uwtable
define internal noundef nonnull align 8 dereferenceable(8) ptr @"_ZNKSt9_Any_data9_M_accessIPZN3igl7tinyply7PlyFile11PlyFileImpl10parse_dataERSibE3$_2EERKT_v"(ptr noundef nonnull align 8 dereferenceable(16) %0) #4 align 2 {
  %2 = alloca ptr, align 8
  store ptr %0, ptr %2, align 8, !tbaa !832
  %3 = load ptr, ptr %2, align 8
  %4 = call noundef ptr @_ZNKSt9_Any_data9_M_accessEv(ptr noundef nonnull align 8 dereferenceable(16) %3) #6
  ret ptr %4
}

; Function Attrs: mustprogress nounwind uwtable
define internal void @"_ZSt10__invoke_rIvRZN3igl7tinyply7PlyFile11PlyFileImpl10parse_dataERSibE3$_2JRNS3_14PropertyLookupERKNS1_11PlyPropertyEPhRmS4_EENSt9enable_ifIX16is_invocable_r_vIT_T0_DpT1_EESF_E4typeEOSG_DpOSH_"(ptr noundef nonnull align 8 dereferenceable(24) %0, ptr noundef nonnull align 8 dereferenceable(32) %1, ptr noundef nonnull align 8 dereferenceable(48) %2, ptr noundef nonnull align 8 dereferenceable(8) %3, ptr noundef nonnull align 8 dereferenceable(8) %4, ptr noundef nonnull align 8 dereferenceable(16) %5) #4 personality ptr @__gxx_personality_v0 {
  %7 = alloca ptr, align 8
  %8 = alloca ptr, align 8
  %9 = alloca ptr, align 8
  %10 = alloca ptr, align 8
  %11 = alloca ptr, align 8
  %12 = alloca ptr, align 8
  store ptr %0, ptr %7, align 8, !tbaa !29
  store ptr %1, ptr %8, align 8, !tbaa !108
  store ptr %2, ptr %9, align 8, !tbaa !56
  store ptr %3, ptr %10, align 8, !tbaa !416
  store ptr %4, ptr %11, align 8, !tbaa !48
  store ptr %5, ptr %12, align 8, !tbaa !58
  %13 = load ptr, ptr %7, align 8, !tbaa !29
  %14 = load ptr, ptr %8, align 8, !tbaa !108
  %15 = load ptr, ptr %9, align 8, !tbaa !56
  %16 = load ptr, ptr %10, align 8, !tbaa !416
  %17 = load ptr, ptr %11, align 8, !tbaa !48
  %18 = load ptr, ptr %12, align 8, !tbaa !58
  invoke void @"_ZSt13__invoke_implIvRZN3igl7tinyply7PlyFile11PlyFileImpl10parse_dataERSibE3$_2JRNS3_14PropertyLookupERKNS1_11PlyPropertyEPhRmS4_EET_St14__invoke_otherOT0_DpOT1_"(ptr noundef nonnull align 8 dereferenceable(24) %13, ptr noundef nonnull align 8 dereferenceable(32) %14, ptr noundef nonnull align 8 dereferenceable(48) %15, ptr noundef nonnull align 8 dereferenceable(8) %16, ptr noundef nonnull align 8 dereferenceable(8) %17, ptr noundef nonnull align 8 dereferenceable(16) %18)
          to label %19 unwind label %20

19:                                               ; preds = %6
  ret void

20:                                               ; preds = %6
  %21 = landingpad { ptr, i32 }
          catch ptr null
  %22 = extractvalue { ptr, i32 } %21, 0
  call void @__clang_call_terminate(ptr %22) #23
  unreachable
}

; Function Attrs: mustprogress nounwind uwtable
define internal noundef ptr @"_ZNSt14_Function_base13_Base_managerIZN3igl7tinyply7PlyFile11PlyFileImpl10parse_dataERSibE3$_2E14_M_get_pointerERKSt9_Any_data"(ptr noundef nonnull align 8 dereferenceable(16) %0) #4 align 2 {
  %2 = alloca ptr, align 8
  store ptr %0, ptr %2, align 8, !tbaa !832
  %3 = load ptr, ptr %2, align 8, !tbaa !832
  %4 = call noundef nonnull align 8 dereferenceable(8) ptr @"_ZNKSt9_Any_data9_M_accessIPZN3igl7tinyply7PlyFile11PlyFileImpl10parse_dataERSibE3$_2EERKT_v"(ptr noundef nonnull align 8 dereferenceable(16) %3) #6
  %5 = load ptr, ptr %4, align 8, !tbaa !29
  ret ptr %5
}

; Function Attrs: mustprogress nounwind uwtable
define internal void @"_ZNSt17_Function_handlerIFvRN3igl7tinyply7PlyFile11PlyFileImpl14PropertyLookupERKNS1_11PlyPropertyEPhRmRSiEZNS3_10parse_dataESB_bE3$_2E9_M_invokeERKSt9_Any_dataS5_S8_OS9_SA_SB_"(ptr noundef nonnull align 8 dereferenceable(16) %0, ptr noundef nonnull align 8 dereferenceable(32) %1, ptr noundef nonnull align 8 dereferenceable(48) %2, ptr noundef nonnull align 8 dereferenceable(8) %3, ptr noundef nonnull align 8 dereferenceable(8) %4, ptr noundef nonnull align 8 dereferenceable(16) %5) #4 align 2 {
  %7 = alloca ptr, align 8
  %8 = alloca ptr, align 8
  %9 = alloca ptr, align 8
  %10 = alloca ptr, align 8
  %11 = alloca ptr, align 8
  %12 = alloca ptr, align 8
  store ptr %0, ptr %7, align 8, !tbaa !832
  store ptr %1, ptr %8, align 8, !tbaa !108
  store ptr %2, ptr %9, align 8, !tbaa !56
  store ptr %3, ptr %10, align 8, !tbaa !416
  store ptr %4, ptr %11, align 8, !tbaa !48
  store ptr %5, ptr %12, align 8, !tbaa !58
  %13 = load ptr, ptr %7, align 8, !tbaa !832
  %14 = call noundef ptr @"_ZNSt14_Function_base13_Base_managerIZN3igl7tinyply7PlyFile11PlyFileImpl10parse_dataERSibE3$_2E14_M_get_pointerERKSt9_Any_data"(ptr noundef nonnull align 8 dereferenceable(16) %13) #6
  %15 = load ptr, ptr %8, align 8, !tbaa !108
  %16 = load ptr, ptr %9, align 8, !tbaa !56
  %17 = load ptr, ptr %10, align 8, !tbaa !416
  %18 = load ptr, ptr %11, align 8, !tbaa !48
  %19 = load ptr, ptr %12, align 8, !tbaa !58
  call void @"_ZSt10__invoke_rIvRZN3igl7tinyply7PlyFile11PlyFileImpl10parse_dataERSibE3$_2JRNS3_14PropertyLookupERKNS1_11PlyPropertyEPhRmS4_EENSt9enable_ifIX16is_invocable_r_vIT_T0_DpT1_EESF_E4typeEOSG_DpOSH_"(ptr noundef nonnull align 8 dereferenceable(24) %14, ptr noundef nonnull align 8 dereferenceable(32) %15, ptr noundef nonnull align 8 dereferenceable(48) %16, ptr noundef nonnull align 8 dereferenceable(8) %17, ptr noundef nonnull align 8 dereferenceable(8) %18, ptr noundef nonnull align 8 dereferenceable(16) %19) #6
  ret void
}