; Function Attrs: mustprogress nounwind uwtable
define internal void @"_ZNSt17_Function_handlerIFvRN3igl7tinyply7PlyFile11PlyFileImpl14PropertyLookupERKNS1_11PlyPropertyEPhRmRSiEZNS3_10parse_dataESB_bE3$_2E9_M_invokeERKSt9_Any_dataS5_S8_OS9_SA_SB_"(ptr noundef nonnull readonly align 8 captures(none) dereferenceable(16) %0, ptr noundef nonnull readonly align 8 captures(none) dereferenceable(32) %1, ptr noundef nonnull readonly align 8 captures(none) dereferenceable(48) %2, ptr noundef nonnull readonly align 8 captures(none) dereferenceable(8) %3, ptr noundef nonnull align 8 captures(none) dereferenceable(8) %4, ptr noundef nonnull align 8 dereferenceable(16) %5) #2 align 2 personality ptr @__gxx_personality_v0 {
  %.val6 = load ptr, ptr %3, align 8, !tbaa !200
  %7 = getelementptr inbounds nuw i8, ptr %2, i64 33
  %8 = load i8, ptr %7, align 1, !tbaa !38, !range !101, !noundef !102
  %9 = trunc nuw i8 %8 to i1
  br i1 %9, label %16, label %10

10:                                               ; preds = %6
  %11 = getelementptr inbounds nuw i8, ptr %2, i64 32
  %12 = getelementptr inbounds nuw i8, ptr %1, i64 16
  %13 = load i64, ptr %4, align 8, !tbaa !27
  %14 = getelementptr inbounds nuw i8, ptr %.val6, i64 %13
  %15 = invoke noundef i64 @_ZN3igl7tinyply7PlyFile11PlyFileImpl19read_property_asciiERKNS0_4TypeERKmPvRmRSi(ptr nonnull align 8 poison, ptr noundef nonnull readonly align 1 dereferenceable(1) %11, ptr noundef nonnull readonly align 8 dereferenceable(8) %12, ptr noundef %14, ptr noundef nonnull align 8 dereferenceable(8) %4, ptr noundef nonnull align 8 dereferenceable(16) %5)
          to label %"_ZSt10__invoke_rIvRZN3igl7tinyply7PlyFile11PlyFileImpl10parse_dataERSibE3$_2JRNS3_14PropertyLookupERKNS1_11PlyPropertyEPhRmS4_EENSt9enable_ifIX16is_invocable_r_vIT_T0_DpT1_EESF_E4typeEOSG_DpOSH_.exit" unwind label %.loopexit.split-lp.i.i.i

16:                                               ; preds = %6
  %.val = load ptr, ptr %0, align 8, !tbaa !155
  %17 = getelementptr inbounds nuw i8, ptr %2, i64 34
  %18 = getelementptr inbounds nuw i8, ptr %1, i64 24
  %19 = getelementptr inbounds nuw i8, ptr %.val, i64 8
  %20 = load ptr, ptr %19, align 8, !tbaa !424
  %21 = getelementptr inbounds nuw i8, ptr %.val, i64 16
  %22 = load ptr, ptr %21, align 8, !tbaa !426
  %23 = invoke noundef i64 @_ZN3igl7tinyply7PlyFile11PlyFileImpl19read_property_asciiERKNS0_4TypeERKmPvRmRSi(ptr nonnull align 8 poison, ptr noundef nonnull readonly align 1 dereferenceable(1) %17, ptr noundef nonnull readonly align 8 dereferenceable(8) %18, ptr noundef %20, ptr noundef nonnull align 8 dereferenceable(8) %22, ptr noundef nonnull align 8 dereferenceable(16) %5)
          to label %.preheader.i.i.i unwind label %.loopexit.split-lp.i.i.i

.preheader.i.i.i:                                 ; preds = %16
  %24 = load ptr, ptr %19, align 8, !tbaa !424
  %25 = load i32, ptr %24, align 4, !tbaa !25
  %.not.i.i.i = icmp eq i32 %25, 0
  br i1 %.not.i.i.i, label %"_ZSt10__invoke_rIvRZN3igl7tinyply7PlyFile11PlyFileImpl10parse_dataERSibE3$_2JRNS3_14PropertyLookupERKNS1_11PlyPropertyEPhRmS4_EENSt9enable_ifIX16is_invocable_r_vIT_T0_DpT1_EESF_E4typeEOSG_DpOSH_.exit", label %.lr.ph.i.i.i

.lr.ph.i.i.i:                                     ; preds = %.preheader.i.i.i
  %26 = getelementptr inbounds nuw i8, ptr %2, i64 32
  %27 = getelementptr inbounds nuw i8, ptr %1, i64 16
  br label %28

28:                                               ; preds = %32, %.lr.ph.i.i.i
  %.019.i.i.i = phi i64 [ 0, %.lr.ph.i.i.i ], [ %33, %32 ]
  %29 = load i64, ptr %4, align 8, !tbaa !27
  %30 = getelementptr inbounds nuw i8, ptr %.val6, i64 %29
  %31 = invoke noundef i64 @_ZN3igl7tinyply7PlyFile11PlyFileImpl19read_property_asciiERKNS0_4TypeERKmPvRmRSi(ptr nonnull align 8 poison, ptr noundef nonnull readonly align 1 dereferenceable(1) %26, ptr noundef nonnull readonly align 8 dereferenceable(8) %27, ptr noundef %30, ptr noundef nonnull align 8 dereferenceable(8) %4, ptr noundef nonnull align 8 dereferenceable(16) %5)
          to label %32 unwind label %.loopexit18.i.i.i

32:                                               ; preds = %28
  %33 = add nuw nsw i64 %.019.i.i.i, 1
  %34 = load ptr, ptr %19, align 8, !tbaa !424
  %35 = load i32, ptr %34, align 4, !tbaa !25
  %36 = zext i32 %35 to i64
  %37 = icmp samesign ult i64 %33, %36
  br i1 %37, label %28, label %"_ZSt10__invoke_rIvRZN3igl7tinyply7PlyFile11PlyFileImpl10parse_dataERSibE3$_2JRNS3_14PropertyLookupERKNS1_11PlyPropertyEPhRmS4_EENSt9enable_ifIX16is_invocable_r_vIT_T0_DpT1_EESF_E4typeEOSG_DpOSH_.exit", !llvm.loop !427

.loopexit18.i.i.i:                                ; preds = %28
  %lpad.loopexit.i.i.i = landingpad { ptr, i32 }
          catch ptr null
  br label %38

.loopexit.split-lp.i.i.i:                         ; preds = %16, %10
  %lpad.loopexit.split-lp.i.i.i = landingpad { ptr, i32 }
          catch ptr null
  br label %38

38:                                               ; preds = %.loopexit.split-lp.i.i.i, %.loopexit18.i.i.i
  %lpad.phi.i.i.i = phi { ptr, i32 } [ %lpad.loopexit.i.i.i, %.loopexit18.i.i.i ], [ %lpad.loopexit.split-lp.i.i.i, %.loopexit.split-lp.i.i.i ]
  %39 = extractvalue { ptr, i32 } %lpad.phi.i.i.i, 0
  tail call void @__clang_call_terminate(ptr %39) #31
  unreachable

"_ZSt10__invoke_rIvRZN3igl7tinyply7PlyFile11PlyFileImpl10parse_dataERSibE3$_2JRNS3_14PropertyLookupERKNS1_11PlyPropertyEPhRmS4_EENSt9enable_ifIX16is_invocable_r_vIT_T0_DpT1_EESF_E4typeEOSG_DpOSH_.exit": ; preds = %32, %10, %.preheader.i.i.i
  ret void
}